; Function Attrs: mustprogress uwtable
define void @_ZN5arrow20FixedSizeBinaryArrayC2ERKSt10shared_ptrINS_8DataTypeEElRKS1_INS_6BufferEES9_ll(ptr noundef nonnull align 8 dereferenceable(44) %this, ptr noundef nonnull align 8 dereferenceable(16) %type, i64 noundef %length, ptr noundef nonnull align 8 dereferenceable(16) %data, ptr noundef nonnull align 8 dereferenceable(16) %null_bitmap, i64 noundef %null_count, i64 noundef %offset) unnamed_addr #0 align 2 personality ptr @__gxx_personality_v0 {
entry:
  tail call void @_ZN5arrow14PrimitiveArrayC2ERKSt10shared_ptrINS_8DataTypeEElRKS1_INS_6BufferEES9_ll(ptr noundef nonnull align 8 dereferenceable(40) %this, ptr noundef nonnull align 8 dereferenceable(16) %type, i64 noundef %length, ptr noundef nonnull align 8 dereferenceable(16) %data, ptr noundef nonnull align 8 dereferenceable(16) %null_bitmap, i64 noundef %null_count, i64 noundef %offset)
  store ptr getelementptr inbounds ({ [4 x ptr] }, ptr @_ZTVN5arrow20FixedSizeBinaryArrayE, i64 0, i32 0, i64 2), ptr %this, align 8
  %0 = load ptr, ptr %type, align 8
  %vtable = load ptr, ptr %0, align 8
  %vfn = getelementptr inbounds i8, ptr %vtable, i64 64
  %1 = load ptr, ptr %vfn, align 8
  %call4 = invoke noundef i32 %1(ptr noundef nonnull align 8 dereferenceable(76) %0)
          to label %invoke.cont3 unwind label %lpad

invoke.cont3:                                     ; preds = %entry
  %byte_width_ = getelementptr inbounds i8, ptr %this, i64 40
  store i32 %call4, ptr %byte_width_, align 8
  ret void

lpad:                                             ; preds = %entry
  %2 = landingpad { ptr, i32 }
          cleanup
  tail call void @_ZN5arrow14PrimitiveArrayD2Ev(ptr noundef nonnull align 8 dereferenceable(40) %this) #11
  resume { ptr, i32 } %2
}